; Function Attrs: nounwind uwtable
define nonnull ptr @l_Lake_StrPat_beq___lambda__1___boxed(ptr noundef %0, ptr noundef %1) #0 {
  %3 = icmp eq ptr %1, %0
  br i1 %3, label %l_Lake_StrPat_beq___lambda__1.exit, label %4

4:                                                ; preds = %2
  %5 = getelementptr i8, ptr %1, i64 8
  %.val.i.i.i = load i64, ptr %5, align 8, !tbaa !12
  %6 = getelementptr i8, ptr %0, i64 8
  %.val7.i.i.i = load i64, ptr %6, align 8, !tbaa !12
  %7 = icmp eq i64 %.val.i.i.i, %.val7.i.i.i
  br i1 %7, label %8, label %l_Lake_StrPat_beq___lambda__1.exit

8:                                                ; preds = %4
  %9 = tail call zeroext i1 @lean_string_eq_cold(ptr noundef nonnull %1, ptr noundef nonnull %0) #7
  %10 = select i1 %9, i64 3, i64 1
  br label %l_Lake_StrPat_beq___lambda__1.exit

l_Lake_StrPat_beq___lambda__1.exit:               ; preds = %2, %4, %8
  %11 = phi i64 [ 3, %2 ], [ 1, %4 ], [ %10, %8 ]
  %12 = ptrtoint ptr %1 to i64
  %13 = and i64 %12, 1
  %.not = icmp eq i64 %13, 0
  br i1 %.not, label %14, label %lean_dec.exit5

14:                                               ; preds = %l_Lake_StrPat_beq___lambda__1.exit
  %15 = load i32, ptr %1, align 4, !tbaa !8
  %16 = icmp sgt i32 %15, 1
  br i1 %16, label %17, label %19, !prof !11

17:                                               ; preds = %14
  %18 = add nsw i32 %15, -1
  store i32 %18, ptr %1, align 4, !tbaa !8
  br label %lean_dec.exit5

19:                                               ; preds = %14
  %.not.i = icmp eq i32 %15, 0
  br i1 %.not.i, label %lean_dec.exit5, label %20

20:                                               ; preds = %19
  tail call void @lean_dec_ref_cold(ptr noundef nonnull %1) #7
  br label %lean_dec.exit5

lean_dec.exit5:                                   ; preds = %20, %19, %17, %l_Lake_StrPat_beq___lambda__1.exit
  %21 = ptrtoint ptr %0 to i64
  %22 = and i64 %21, 1
  %.not8 = icmp eq i64 %22, 0
  br i1 %.not8, label %23, label %lean_dec.exit

23:                                               ; preds = %lean_dec.exit5
  %24 = load i32, ptr %0, align 4, !tbaa !8
  %25 = icmp sgt i32 %24, 1
  br i1 %25, label %26, label %28, !prof !11

26:                                               ; preds = %23
  %27 = add nsw i32 %24, -1
  store i32 %27, ptr %0, align 4, !tbaa !8
  br label %lean_dec.exit

28:                                               ; preds = %23
  %.not.i6 = icmp eq i32 %24, 0
  br i1 %.not.i6, label %lean_dec.exit, label %29

29:                                               ; preds = %28
  tail call void @lean_dec_ref_cold(ptr noundef nonnull %0) #7
  br label %lean_dec.exit

lean_dec.exit:                                    ; preds = %29, %28, %26, %lean_dec.exit5
  %30 = inttoptr i64 %11 to ptr
  ret ptr %30
}